target datalayout = "e-m:e-p270:32:32-p271:32:32-p272:64:64-i64:64-i128:128-f80:128-n8:16:32:64-S128"
target triple = "x86_64-pc-linux-gnu"

@H5_libinit_g = external global i8, align 1
@H5_libterm_g = external global i8, align 1
@.str = private unnamed_addr constant [97 x i8] c"generated/home/dtcxzyw/WorkSpace/Projects/compilers/llvm-opt-benchmark/bench/hdf5/hdf5/src/H5A.c\00", align 1
@H5E_FUNC_g = external global i64, align 8
@H5E_CANTINIT_g = external global i64, align 8
@.str.1 = private unnamed_addr constant [30 x i8] c"library initialization failed\00", align 1
@H5E_CANTSET_g = external global i64, align 8
@.str.2 = private unnamed_addr constant [22 x i8] c"can't set API context\00", align 1
@H5E_ATTR_g = external global i64, align 8
@H5E_CANTGET_g = external global i64, align 8
@__func__.H5Aexists_by_name = private unnamed_addr constant [18 x i8] c"H5Aexists_by_name\00", align 1
@.str.83 = private unnamed_addr constant [58 x i8] c"can't synchronously determine if attribute exists by name\00", align 1

; Function Attrs: nounwind uwtable
define i32 @H5Aexists_by_name(i64 noundef %0, ptr noundef %1, ptr noundef %2, i64 noundef %3) #0 {
  %5 = alloca i64, align 8
  %6 = alloca ptr, align 8
  %7 = alloca ptr, align 8
  %8 = alloca i64, align 8
  %9 = alloca i8, align 1
  %10 = alloca i32, align 4
  %11 = alloca i8, align 1
  %12 = alloca i8, align 1
  store i64 %0, ptr %5, align 8
  store ptr %1, ptr %6, align 8
  store ptr %2, ptr %7, align 8
  store i64 %3, ptr %8, align 8
  store i32 -1, ptr %10, align 4
  store i8 0, ptr %11, align 1
  store i8 0, ptr %12, align 1
  %13 = load i8, ptr @H5_libinit_g, align 1
  %14 = trunc i8 %13 to i1
  br i1 %14, label %19, label %15

15:                                               ; preds = %4
  %16 = load i8, ptr @H5_libterm_g, align 1
  %17 = trunc i8 %16 to i1
  %18 = xor i1 %17, true
  br label %19

19:                                               ; preds = %15, %4
  %20 = phi i1 [ false, %4 ], [ %18, %15 ]
  %21 = xor i1 %20, true
  %22 = xor i1 %21, true
  %23 = zext i1 %22 to i32
  %24 = sext i32 %23 to i64
  %25 = icmp ne i64 %24, 0
  br i1 %25, label %26, label %50

26:                                               ; preds = %19
  %27 = call i32 @H5_init_library()
  %28 = icmp slt i32 %27, 0
  %29 = xor i1 %28, true
  %30 = xor i1 %29, true
  %31 = zext i1 %30 to i32
  %32 = sext i32 %31 to i64
  %33 = icmp ne i64 %32, 0
  br i1 %33, label %34, label %49

34:                                               ; preds = %26
  br label %35

35:                                               ; preds = %34
  br label %36

36:                                               ; preds = %35
  br label %37

37:                                               ; preds = %36
  %38 = load i64, ptr @H5E_FUNC_g, align 8
  %39 = load i64, ptr @H5E_CANTINIT_g, align 8
  %40 = call i32 (ptr, ptr, i32, i64, i64, ptr, ...) @H5E_printf_stack(ptr noundef @.str, ptr noundef @__func__.H5Aexists_by_name, i32 noundef 2458, i64 noundef %38, i64 noundef %39, ptr noundef @.str.1)
  br label %41

41:                                               ; preds = %37
  store i8 1, ptr %12, align 1
  %42 = load i8, ptr %12, align 1
  %43 = trunc i8 %42 to i1
  %44 = zext i1 %43 to i8
  store i8 %44, ptr %12, align 1
  br label %45

45:                                               ; preds = %41
  br label %46

46:                                               ; preds = %45
  store i32 -1, ptr %10, align 4
  br label %101

47:                                               ; No predecessors!
  br label %48

48:                                               ; preds = %47
  br label %49

49:                                               ; preds = %48, %26
  br label %50

50:                                               ; preds = %49, %19
  %51 = call i32 @H5CX_push()
  %52 = icmp slt i32 %51, 0
  %53 = xor i1 %52, true
  %54 = xor i1 %53, true
  %55 = zext i1 %54 to i32
  %56 = sext i32 %55 to i64
  %57 = icmp ne i64 %56, 0
  br i1 %57, label %58, label %73

58:                                               ; preds = %50
  br label %59

59:                                               ; preds = %58
  br label %60

60:                                               ; preds = %59
  br label %61

61:                                               ; preds = %60
  %62 = load i64, ptr @H5E_FUNC_g, align 8
  %63 = load i64, ptr @H5E_CANTSET_g, align 8
  %64 = call i32 (ptr, ptr, i32, i64, i64, ptr, ...) @H5E_printf_stack(ptr noundef @.str, ptr noundef @__func__.H5Aexists_by_name, i32 noundef 2458, i64 noundef %62, i64 noundef %63, ptr noundef @.str.2)
  br label %65

65:                                               ; preds = %61
  store i8 1, ptr %12, align 1
  %66 = load i8, ptr %12, align 1
  %67 = trunc i8 %66 to i1
  %68 = zext i1 %67 to i8
  store i8 %68, ptr %12, align 1
  br label %69

69:                                               ; preds = %65
  br label %70

70:                                               ; preds = %69
  store i32 -1, ptr %10, align 4
  br label %101

71:                                               ; No predecessors!
  br label %72

72:                                               ; preds = %71
  br label %74

73:                                               ; preds = %50
  store i8 1, ptr %11, align 1
  br label %74

74:                                               ; preds = %73, %72
  %75 = call i32 @H5E_clear_stack()
  store i8 0, ptr %9, align 1
  %76 = load i64, ptr %5, align 8
  %77 = load ptr, ptr %6, align 8
  %78 = load ptr, ptr %7, align 8
  %79 = load i64, ptr %8, align 8
  %80 = call i32 @H5A__exists_by_name_api_common(i64 noundef %76, ptr noundef %77, ptr noundef %78, ptr noundef %9, i64 noundef %79, ptr noundef null, ptr noundef null)
  %81 = icmp slt i32 %80, 0
  br i1 %81, label %82, label %97

82:                                               ; preds = %74
  br label %83

83:                                               ; preds = %82
  br label %84

84:                                               ; preds = %83
  br label %85

85:                                               ; preds = %84
  %86 = load i64, ptr @H5E_ATTR_g, align 8
  %87 = load i64, ptr @H5E_CANTGET_g, align 8
  %88 = call i32 (ptr, ptr, i32, i64, i64, ptr, ...) @H5E_printf_stack(ptr noundef @.str, ptr noundef @__func__.H5Aexists_by_name, i32 noundef 2463, i64 noundef %86, i64 noundef %87, ptr noundef @.str.83)
  br label %89

89:                                               ; preds = %85
  store i8 1, ptr %12, align 1
  %90 = load i8, ptr %12, align 1
  %91 = trunc i8 %90 to i1
  %92 = zext i1 %91 to i8
  store i8 %92, ptr %12, align 1
  br label %93

93:                                               ; preds = %89
  br label %94

94:                                               ; preds = %93
  store i32 -1, ptr %10, align 4
  br label %101

95:                                               ; No predecessors!
  br label %96

96:                                               ; preds = %95
  br label %97

97:                                               ; preds = %96, %74
  %98 = load i8, ptr %9, align 1
  %99 = trunc i8 %98 to i1
  %100 = zext i1 %99 to i32
  store i32 %100, ptr %10, align 4
  br label %101

101:                                              ; preds = %97, %94, %70, %46
  %102 = load i8, ptr %11, align 1
  %103 = trunc i8 %102 to i1
  %104 = xor i1 %103, true
  %105 = xor i1 %104, true
  %106 = zext i1 %105 to i32
  %107 = sext i32 %106 to i64
  %108 = icmp ne i64 %107, 0
  br i1 %108, label %109, label %111

109:                                              ; preds = %101
  %110 = call i32 @H5CX_pop(i1 noundef zeroext true)
  store i8 0, ptr %11, align 1
  br label %111

111:                                              ; preds = %109, %101
  %112 = load i8, ptr %12, align 1
  %113 = trunc i8 %112 to i1
  %114 = xor i1 %113, true
  %115 = xor i1 %114, true
  %116 = zext i1 %115 to i32
  %117 = sext i32 %116 to i64
  %118 = icmp ne i64 %117, 0
  br i1 %118, label %119, label %121

119:                                              ; preds = %111
  %120 = call i32 @H5E_dump_api_stack()
  br label %121

121:                                              ; preds = %119, %111
  %122 = load i32, ptr %10, align 4
  ret i32 %122
}