; Function Attrs: nounwind uwtable
define range(i32 -1, 2) i32 @H5Aexists_by_name(i64 noundef %0, ptr noundef %1, ptr noundef %2, i64 noundef %3) local_unnamed_addr #0 {
  %5 = alloca i8, align 1
  %6 = load i8, ptr @H5_libinit_g, align 1
  %7 = trunc i8 %6 to i1
  %8 = load i8, ptr @H5_libterm_g, align 1
  %9 = trunc i8 %8 to i1
  %10 = select i1 %7, i1 true, i1 %9
  br i1 %10, label %18, label %11

11:                                               ; preds = %4
  %12 = tail call i32 @H5_init_library() #4
  %13 = icmp slt i32 %12, 0
  br i1 %13, label %14, label %18

14:                                               ; preds = %11
  %15 = load i64, ptr @H5E_FUNC_g, align 8
  %16 = load i64, ptr @H5E_CANTINIT_g, align 8
  %17 = tail call i32 (ptr, ptr, i32, i64, i64, ptr, ...) @H5E_printf_stack(ptr noundef nonnull @.str, ptr noundef nonnull @__func__.H5Aexists_by_name, i32 noundef 2458, i64 noundef %15, i64 noundef %16, ptr noundef nonnull @.str.1) #4
  br label %.thread19

18:                                               ; preds = %11, %4
  %19 = tail call i32 @H5CX_push() #4
  %20 = icmp slt i32 %19, 0
  br i1 %20, label %21, label %25

21:                                               ; preds = %18
  %22 = load i64, ptr @H5E_FUNC_g, align 8
  %23 = load i64, ptr @H5E_CANTSET_g, align 8
  %24 = tail call i32 (ptr, ptr, i32, i64, i64, ptr, ...) @H5E_printf_stack(ptr noundef nonnull @.str, ptr noundef nonnull @__func__.H5Aexists_by_name, i32 noundef 2458, i64 noundef %22, i64 noundef %23, ptr noundef nonnull @.str.2) #4
  br label %.thread19

25:                                               ; preds = %18
  %26 = tail call i32 @H5E_clear_stack() #4
  store i8 0, ptr %5, align 1
  %27 = call fastcc i32 @H5A__exists_by_name_api_common(i64 noundef %0, ptr noundef %1, ptr noundef %2, ptr noundef nonnull %5, i64 noundef %3, ptr noundef null, ptr noundef null)
  %28 = icmp slt i32 %27, 0
  br i1 %28, label %.thread24, label %33

.thread24:                                        ; preds = %25
  %29 = load i64, ptr @H5E_ATTR_g, align 8
  %30 = load i64, ptr @H5E_CANTGET_g, align 8
  %31 = call i32 (ptr, ptr, i32, i64, i64, ptr, ...) @H5E_printf_stack(ptr noundef nonnull @.str, ptr noundef nonnull @__func__.H5Aexists_by_name, i32 noundef 2463, i64 noundef %29, i64 noundef %30, ptr noundef nonnull @.str.83) #4
  %32 = call i32 @H5CX_pop(i1 noundef zeroext true) #4
  br label %.thread19

33:                                               ; preds = %25
  %34 = load i8, ptr %5, align 1
  %35 = and i8 %34, 1
  %36 = zext nneg i8 %35 to i32
  %37 = call i32 @H5CX_pop(i1 noundef zeroext true) #4
  br label %39

.thread19:                                        ; preds = %21, %14, %.thread24
  %38 = call i32 @H5E_dump_api_stack() #4
  br label %39

39:                                               ; preds = %33, %.thread19
  %.0101422 = phi i32 [ -1, %.thread19 ], [ %36, %33 ]
  ret i32 %.0101422
}